; Function Attrs: mustprogress uwtable
define hidden noundef ptr @_ZN13bool_rewriter9mk_or_appEjPKP4expr(ptr nocapture noundef nonnull readonly align 8 dereferenceable(72) %this, i32 noundef %num_args, ptr noundef %args) local_unnamed_addr #3 align 2 {
entry:
  switch i32 %num_args, label %sw.default [
    i32 0, label %sw.bb
    i32 1, label %sw.bb3
  ]

sw.bb:                                            ; preds = %entry
  %0 = load ptr, ptr %this, align 8
  %m_false.i = getelementptr inbounds i8, ptr %0, i64 864
  %1 = load ptr, ptr %m_false.i, align 8
  br label %return

sw.bb3:                                           ; preds = %entry
  %2 = load ptr, ptr %args, align 8
  br label %return

sw.default:                                       ; preds = %entry
  %3 = load ptr, ptr %this, align 8
  %call.i = tail call noundef ptr @_ZN11ast_manager6mk_appEiijPKP4expr(ptr noundef nonnull align 8 dereferenceable(976) %3, i32 noundef 0, i32 noundef 6, i32 noundef %num_args, ptr noundef %args)
  br label %return

return:                                           ; preds = %sw.default, %sw.bb3, %sw.bb
  %retval.0 = phi ptr [ %call.i, %sw.default ], [ %2, %sw.bb3 ], [ %1, %sw.bb ]
  ret ptr %retval.0
}